(lp1
I00
actime
struct_time
p2
((I2012
I12
I27
I9
I32
I22
I3
I362
I-1
t(dtRp3
a(dp4
S'270'
p5
(lp6
((lp7
(S'g'
S'ed.'
tp8
a(S'p'
S'Rees, J A'
tp9
aS' '
S' '
S''
I8
tp10
asS'909'
p11
(lp12
((lp13
(S'y'
S'1973'
tp14
aS'C'
S'0'
S''
I10
tp15
a((lp16
(S'b'
S'21'
tp17
aS'C'
S'0'
S''
I11
tp18
a((lp19
(S'c'
S'1990-01-27'
tp20
a(S'l'
S'00'
tp21
a(S'm'
S'2002-04-12'
tp22
a(S'o'
S'BATCH'
tp23
aS'C'
S'1'
S''
I12
tp24
a((lp25
(S's'
S'm'
tp26
a(S'w'
S'198606'
tp27
aS'C'
S'S'
S''
I13
tp28
asS'300'
p29
(lp30
((lp31
(S'a'
S'303 p'
tp32
aS' '
S' '
S''
I9
tp33
asS'980'
p34
(lp35
((lp36
(S'a'
S'BOOK'
tp37
aS' '
S' '
S''
I14
tp38
asS'080'
p39
(lp40
((lp41
(S'a'
S'537.52'
tp42
aS' '
S' '
S''
I5
tp43
asS'245'
p44
(lp45
((lp46
(S'a'
S'Electrical breakdown in gases'
tp47
aS' '
S' '
S''
I6
tp48
asS'001'
p49
(lp50
((lS' '
S' '
S'34'
I1
tp51
asS'260'
p52
(lp53
((lp54
(S'a'
S'London'
tp55
a(S'b'
S'Macmillan'
tp56
a(S'c'
S'1973'
tp57
aS' '
S' '
S''
I7
tp58
asS'020'
p59
(lp60
((lp61
(S'a'
S'0387940758'
tp62
aS' '
S' '
S''
I3
tp63
asS'005'
p64
(lp65
((lS' '
S' '
S'20121227093222.0'
I2
tp66
asS'041'
p67
(lp68
((lp69
(S'a'
S'eng'
tp70
aS' '
S' '
S''
I4
tp71
asa(lp72
a(dp73
a(lp74
a(lp75
a.